target datalayout = "e-m:e-p270:32:32-p271:32:32-p272:64:64-i64:64-i128:128-f80:128-n8:16:32:64-S128"
target triple = "x86_64-pc-linux-gnu"

%struct._object = type { %union.anon, ptr }
%union.anon = type { i64 }
%struct.Py_buffer = type { ptr, ptr, i64, i64, i32, i32, ptr, ptr, ptr, ptr, ptr }
%struct._typeobject = type { %struct.PyVarObject, ptr, i64, i64, ptr, i64, ptr, ptr, ptr, ptr, ptr, ptr, ptr, ptr, ptr, ptr, ptr, ptr, ptr, i64, ptr, ptr, ptr, ptr, i64, ptr, ptr, ptr, ptr, ptr, ptr, ptr, ptr, ptr, i64, ptr, ptr, ptr, ptr, ptr, ptr, ptr, ptr, ptr, ptr, ptr, i32, ptr, ptr, i8, i16 }
%struct.PyVarObject = type { %struct._object, i64 }
%struct.PyASCIIObject = type { %struct._object, i64, i64, %struct.anon.0 }
%struct.anon.0 = type { i16, i16 }
%struct.PyCompactUnicodeObject = type { %struct.PyASCIIObject, i64, ptr }
%struct.PyUnicodeObject = type { %struct.PyCompactUnicodeObject, %union.anon.1 }
%union.anon.1 = type { ptr }

@PyExc_ValueError = external global ptr, align 8
@.str.14 = private unnamed_addr constant [53 x i8] c"string argument should contain only ASCII characters\00", align 1
@PyExc_TypeError = external global ptr, align 8
@.str.15 = private unnamed_addr constant [63 x i8] c"argument should be bytes, buffer or ASCII string, not '%.100s'\00", align 1

; Function Attrs: inlinehint nounwind uwtable
define internal ptr @_PyUnicode_NONCOMPACT_DATA(ptr noundef %0) #4 {
  %2 = alloca ptr, align 8
  %3 = alloca ptr, align 8
  store ptr %0, ptr %2, align 8, !tbaa !3
  call void @llvm.lifetime.start.p0(i64 8, ptr %3) #7
  %4 = load ptr, ptr %2, align 8, !tbaa !3
  %5 = getelementptr inbounds nuw %struct.PyUnicodeObject, ptr %4, i32 0, i32 1
  %6 = load ptr, ptr %5, align 8, !tbaa !36
  store ptr %6, ptr %3, align 8, !tbaa !8
  %7 = load ptr, ptr %3, align 8, !tbaa !8
  call void @llvm.lifetime.end.p0(i64 8, ptr %3) #7
  ret ptr %7
}

; Function Attrs: inlinehint nounwind uwtable
define internal ptr @_PyUnicode_COMPACT_DATA(ptr noundef %0) #4 {
  %2 = alloca ptr, align 8
  %3 = alloca ptr, align 8
  store ptr %0, ptr %3, align 8, !tbaa !3
  %4 = load ptr, ptr %3, align 8, !tbaa !3
  %5 = call i32 @PyUnicode_IS_ASCII(ptr noundef %4)
  %6 = icmp ne i32 %5, 0
  br i1 %6, label %7, label %10

7:                                                ; preds = %1
  %8 = load ptr, ptr %3, align 8, !tbaa !3
  %9 = getelementptr %struct.PyASCIIObject, ptr %8, i64 1
  store ptr %9, ptr %2, align 8
  br label %13

10:                                               ; preds = %1
  %11 = load ptr, ptr %3, align 8, !tbaa !3
  %12 = getelementptr %struct.PyCompactUnicodeObject, ptr %11, i64 1
  store ptr %12, ptr %2, align 8
  br label %13

13:                                               ; preds = %10, %7
  %14 = load ptr, ptr %2, align 8
  ret ptr %14
}

; Function Attrs: inlinehint nounwind uwtable
define internal i32 @PyUnicode_IS_COMPACT(ptr noundef %0) #4 {
  %2 = alloca ptr, align 8
  store ptr %0, ptr %2, align 8, !tbaa !3
  %3 = load ptr, ptr %2, align 8, !tbaa !3
  %4 = getelementptr inbounds nuw %struct.PyASCIIObject, ptr %3, i32 0, i32 3
  %5 = getelementptr inbounds nuw %struct.anon.0, ptr %4, i32 0, i32 1
  %6 = load i16, ptr %5, align 2
  %7 = lshr i16 %6, 3
  %8 = and i16 %7, 1
  %9 = zext i16 %8 to i32
  ret i32 %9
}

; Function Attrs: inlinehint nounwind uwtable
define internal i64 @PyUnicode_GET_LENGTH(ptr noundef %0) #4 {
  %2 = alloca ptr, align 8
  store ptr %0, ptr %2, align 8, !tbaa !3
  %3 = load ptr, ptr %2, align 8, !tbaa !3
  %4 = getelementptr inbounds nuw %struct.PyASCIIObject, ptr %3, i32 0, i32 1
  %5 = load i64, ptr %4, align 8, !tbaa !43
  ret i64 %5
}

; Function Attrs: inlinehint nounwind uwtable
define internal ptr @_PyUnicode_DATA(ptr noundef %0) #4 {
  %2 = alloca ptr, align 8
  %3 = alloca ptr, align 8
  store ptr %0, ptr %3, align 8, !tbaa !3
  %4 = load ptr, ptr %3, align 8, !tbaa !3
  %5 = call i32 @PyUnicode_IS_COMPACT(ptr noundef %4)
  %6 = icmp ne i32 %5, 0
  br i1 %6, label %7, label %10

7:                                                ; preds = %1
  %8 = load ptr, ptr %3, align 8, !tbaa !3
  %9 = call ptr @_PyUnicode_COMPACT_DATA(ptr noundef %8)
  store ptr %9, ptr %2, align 8
  br label %13

10:                                               ; preds = %1
  %11 = load ptr, ptr %3, align 8, !tbaa !3
  %12 = call ptr @_PyUnicode_NONCOMPACT_DATA(ptr noundef %11)
  store ptr %12, ptr %2, align 8
  br label %13

13:                                               ; preds = %10, %7
  %14 = load ptr, ptr %2, align 8
  ret ptr %14
}

; Function Attrs: inlinehint nounwind uwtable
define internal i32 @PyUnicode_IS_ASCII(ptr noundef %0) #4 {
  %2 = alloca ptr, align 8
  store ptr %0, ptr %2, align 8, !tbaa !3
  %3 = load ptr, ptr %2, align 8, !tbaa !3
  %4 = getelementptr inbounds nuw %struct.PyASCIIObject, ptr %3, i32 0, i32 3
  %5 = getelementptr inbounds nuw %struct.anon.0, ptr %4, i32 0, i32 1
  %6 = load i16, ptr %5, align 2
  %7 = lshr i16 %6, 4
  %8 = and i16 %7, 1
  %9 = zext i16 %8 to i32
  ret i32 %9
}

; Function Attrs: inlinehint nounwind uwtable
define internal i32 @PyType_HasFeature(ptr noundef %0, i64 noundef %1) #4 {
  %3 = alloca ptr, align 8
  %4 = alloca i64, align 8
  %5 = alloca i64, align 8
  store ptr %0, ptr %3, align 8, !tbaa !40
  store i64 %1, ptr %4, align 8, !tbaa !23
  call void @llvm.lifetime.start.p0(i64 8, ptr %5) #7
  %6 = load ptr, ptr %3, align 8, !tbaa !40
  %7 = getelementptr inbounds nuw %struct._typeobject, ptr %6, i32 0, i32 19
  %8 = load i64, ptr %7, align 8, !tbaa !41
  store i64 %8, ptr %5, align 8, !tbaa !23
  %9 = load i64, ptr %5, align 8, !tbaa !23
  %10 = load i64, ptr %4, align 8, !tbaa !23
  %11 = and i64 %9, %10
  %12 = icmp ne i64 %11, 0
  %13 = zext i1 %12 to i32
  call void @llvm.lifetime.end.p0(i64 8, ptr %5) #7
  ret i32 %13
}

; Function Attrs: inlinehint nounwind uwtable
define internal ptr @_Py_TYPE(ptr noundef %0) #4 {
  %2 = alloca ptr, align 8
  store ptr %0, ptr %2, align 8, !tbaa !3
  %3 = load ptr, ptr %2, align 8, !tbaa !3
  %4 = getelementptr inbounds nuw %struct._object, ptr %3, i32 0, i32 1
  %5 = load ptr, ptr %4, align 8, !tbaa !42
  ret ptr %5
}

; Function Attrs: nounwind uwtable
define internal i32 @ascii_buffer_converter(ptr noundef %0, ptr noundef %1) #0 {
  %3 = alloca i32, align 4
  %4 = alloca ptr, align 8
  %5 = alloca ptr, align 8
  store ptr %0, ptr %4, align 8, !tbaa !3
  store ptr %1, ptr %5, align 8, !tbaa !8
  %6 = load ptr, ptr %4, align 8, !tbaa !3
  %7 = icmp eq ptr %6, null
  br i1 %7, label %8, label %10

8:                                                ; preds = %2
  %9 = load ptr, ptr %5, align 8, !tbaa !8
  call void @PyBuffer_Release(ptr noundef %9)
  store i32 1, ptr %3, align 4
  br label %45

10:                                               ; preds = %2
  %11 = load ptr, ptr %4, align 8, !tbaa !3
  %12 = call ptr @_Py_TYPE(ptr noundef %11)
  %13 = call i32 @PyType_HasFeature(ptr noundef %12, i64 noundef 268435456)
  %14 = icmp ne i32 %13, 0
  br i1 %14, label %15, label %32

15:                                               ; preds = %10
  %16 = load ptr, ptr %4, align 8, !tbaa !3
  %17 = call i32 @PyUnicode_IS_ASCII(ptr noundef %16)
  %18 = icmp ne i32 %17, 0
  br i1 %18, label %21, label %19

19:                                               ; preds = %15
  %20 = load ptr, ptr @PyExc_ValueError, align 8, !tbaa !3
  call void @PyErr_SetString(ptr noundef %20, ptr noundef @.str.14)
  store i32 0, ptr %3, align 4
  br label %45

21:                                               ; preds = %15
  %22 = load ptr, ptr %4, align 8, !tbaa !3
  %23 = call ptr @_PyUnicode_DATA(ptr noundef %22)
  %24 = load ptr, ptr %5, align 8, !tbaa !8
  %25 = getelementptr inbounds nuw %struct.Py_buffer, ptr %24, i32 0, i32 0
  store ptr %23, ptr %25, align 8, !tbaa !24
  %26 = load ptr, ptr %4, align 8, !tbaa !3
  %27 = call i64 @PyUnicode_GET_LENGTH(ptr noundef %26)
  %28 = load ptr, ptr %5, align 8, !tbaa !8
  %29 = getelementptr inbounds nuw %struct.Py_buffer, ptr %28, i32 0, i32 2
  store i64 %27, ptr %29, align 8, !tbaa !25
  %30 = load ptr, ptr %5, align 8, !tbaa !8
  %31 = getelementptr inbounds nuw %struct.Py_buffer, ptr %30, i32 0, i32 1
  store ptr null, ptr %31, align 8, !tbaa !18
  store i32 1, ptr %3, align 4
  br label %45

32:                                               ; preds = %10
  %33 = load ptr, ptr %4, align 8, !tbaa !3
  %34 = load ptr, ptr %5, align 8, !tbaa !8
  %35 = call i32 @PyObject_GetBuffer(ptr noundef %33, ptr noundef %34, i32 noundef 0)
  %36 = icmp ne i32 %35, 0
  br i1 %36, label %37, label %44

37:                                               ; preds = %32
  %38 = load ptr, ptr @PyExc_TypeError, align 8, !tbaa !3
  %39 = load ptr, ptr %4, align 8, !tbaa !3
  %40 = call ptr @_Py_TYPE(ptr noundef %39)
  %41 = getelementptr inbounds nuw %struct._typeobject, ptr %40, i32 0, i32 1
  %42 = load ptr, ptr %41, align 8, !tbaa !26
  %43 = call ptr (ptr, ptr, ...) @PyErr_Format(ptr noundef %38, ptr noundef @.str.15, ptr noundef %42)
  store i32 0, ptr %3, align 4
  br label %45

44:                                               ; preds = %32
  store i32 131072, ptr %3, align 4
  br label %45

45:                                               ; preds = %44, %37, %21, %19, %8
  %46 = load i32, ptr %3, align 4
  ret i32 %46
}