; Function Attrs: nounwind uwtable
define internal fastcc range(i32 0, 131073) i32 @ascii_buffer_converter(ptr noundef %0, ptr noundef nonnull %1) unnamed_addr #0 {
  %3 = icmp eq ptr %0, null
  br i1 %3, label %4, label %5

4:                                                ; preds = %2
  tail call void @PyBuffer_Release(ptr noundef nonnull %1) #5
  br label %29

5:                                                ; preds = %2
  %6 = getelementptr i8, ptr %0, i64 8
  %.val = load ptr, ptr %6, align 8, !tbaa !38
  %7 = getelementptr i8, ptr %.val, i64 168
  %.val16 = load i64, ptr %7, align 8, !tbaa !39
  %8 = and i64 %.val16, 268435456
  %.not = icmp eq i64 %8, 0
  br i1 %.not, label %22, label %9

9:                                                ; preds = %5
  %10 = getelementptr i8, ptr %0, i64 34
  %.val17 = load i16, ptr %10, align 2
  %11 = and i16 %.val17, 16
  %.not14 = icmp eq i16 %11, 0
  br i1 %.not14, label %12, label %14

12:                                               ; preds = %9
  %13 = load ptr, ptr @PyExc_ValueError, align 8, !tbaa !10
  tail call void @PyErr_SetString(ptr noundef %13, ptr noundef nonnull @.str.14) #5
  br label %29

14:                                               ; preds = %9
  %15 = and i16 %.val17, 8
  %.not.i = icmp eq i16 %15, 0
  br i1 %.not.i, label %17, label %16

16:                                               ; preds = %14
  %.0.i.i = getelementptr i8, ptr %0, i64 40
  br label %_PyUnicode_DATA.exit

17:                                               ; preds = %14
  %18 = getelementptr i8, ptr %0, i64 56
  %.val4.i = load ptr, ptr %18, align 8, !tbaa !11
  br label %_PyUnicode_DATA.exit

_PyUnicode_DATA.exit:                             ; preds = %16, %17
  %.0.i = phi ptr [ %.0.i.i, %16 ], [ %.val4.i, %17 ]
  store ptr %.0.i, ptr %1, align 8, !tbaa !12
  %19 = getelementptr i8, ptr %0, i64 16
  %.val18 = load i64, ptr %19, align 8, !tbaa !44
  %20 = getelementptr inbounds nuw i8, ptr %1, i64 16
  store i64 %.val18, ptr %20, align 8, !tbaa !18
  %21 = getelementptr inbounds nuw i8, ptr %1, i64 8
  store ptr null, ptr %21, align 8, !tbaa !21
  br label %29

22:                                               ; preds = %5
  %23 = tail call i32 @PyObject_GetBuffer(ptr noundef nonnull %0, ptr noundef nonnull %1, i32 noundef 0) #5
  %.not13 = icmp eq i32 %23, 0
  br i1 %.not13, label %29, label %24

24:                                               ; preds = %22
  %25 = load ptr, ptr @PyExc_TypeError, align 8, !tbaa !10
  %.val15 = load ptr, ptr %6, align 8, !tbaa !38
  %26 = getelementptr inbounds nuw i8, ptr %.val15, i64 24
  %27 = load ptr, ptr %26, align 8, !tbaa !47
  %28 = tail call ptr (ptr, ptr, ...) @PyErr_Format(ptr noundef %25, ptr noundef nonnull @.str.15, ptr noundef %27) #5
  br label %29

29:                                               ; preds = %22, %24, %_PyUnicode_DATA.exit, %12, %4
  %.0 = phi i32 [ 1, %4 ], [ 1, %_PyUnicode_DATA.exit ], [ 0, %12 ], [ 0, %24 ], [ 131072, %22 ]
  ret i32 %.0
}